; Function Attrs: null_pointer_is_valid sspstrong uwtable
define internal void @ikev2_users_sk_ei_tostr_cb(ptr noundef readonly captures(none) %0, ptr noundef writeonly captures(none) initializes((0, 8)) %1, ptr noundef writeonly captures(none) initializes((0, 4)) %2, ptr readnone captures(none) %3, ptr readnone captures(none) %4) #0 {
  %6 = getelementptr inbounds nuw i8, ptr %0, i64 40
  %7 = load ptr, ptr %6, align 8
  %.not = icmp eq ptr %7, null
  br i1 %.not, label %13, label %8

8:                                                ; preds = %5
  %9 = getelementptr inbounds nuw i8, ptr %0, i64 48
  %10 = load i32, ptr %9, align 8
  %11 = zext i32 %10 to i64
  %12 = tail call ptr @g_memdup2(ptr noundef nonnull %7, i64 noundef %11) #22
  br label %15

13:                                               ; preds = %5
  %14 = tail call noalias ptr @g_strdup(ptr noundef nonnull @.str.1051)
  br label %15

15:                                               ; preds = %13, %8
  %16 = phi ptr [ %12, %8 ], [ %14, %13 ]
  store ptr %16, ptr %1, align 8
  %17 = getelementptr inbounds nuw i8, ptr %0, i64 48
  %18 = load i32, ptr %17, align 8
  store i32 %18, ptr %2, align 4
  ret void
}